target datalayout = "e-m:e-p270:32:32-p271:32:32-p272:64:64-i64:64-i128:128-f80:128-n8:16:32:64-S128"
target triple = "x86_64-pc-linux-gnu"

; Function Attrs: inlinehint mustprogress nounwind uwtable
define linkonce_odr noundef nonnull align 4 dereferenceable(4) ptr @_ZSt3maxIfERKT_S2_S2_(ptr noundef nonnull align 4 dereferenceable(4) %0, ptr noundef nonnull align 4 dereferenceable(4) %1) #8 comdat {
  %3 = alloca ptr, align 8
  %4 = alloca ptr, align 8
  %5 = alloca ptr, align 8
  store ptr %0, ptr %4, align 8, !tbaa !240
  store ptr %1, ptr %5, align 8, !tbaa !240
  %6 = load ptr, ptr %4, align 8, !tbaa !240
  %7 = load float, ptr %6, align 4, !tbaa !15
  %8 = load ptr, ptr %5, align 8, !tbaa !240
  %9 = load float, ptr %8, align 4, !tbaa !15
  %10 = fcmp olt float %7, %9
  br i1 %10, label %11, label %13

11:                                               ; preds = %2
  %12 = load ptr, ptr %5, align 8, !tbaa !240
  store ptr %12, ptr %3, align 8
  br label %15

13:                                               ; preds = %2
  %14 = load ptr, ptr %4, align 8, !tbaa !240
  store ptr %14, ptr %3, align 8
  br label %15

15:                                               ; preds = %13, %11
  %16 = load ptr, ptr %3, align 8
  ret ptr %16
}

; Function Attrs: inlinehint mustprogress nounwind uwtable
define linkonce_odr noundef float @_ZSt3cosf(float noundef %0) #8 comdat {
  %2 = alloca float, align 4
  store float %0, ptr %2, align 4, !tbaa !15
  %3 = load float, ptr %2, align 4, !tbaa !15
  %4 = call float @cosf(float noundef %3) #3, !tbaa !11
  ret float %4
}

; Function Attrs: inlinehint mustprogress nounwind uwtable
define linkonce_odr noundef float @_ZSt4acosf(float noundef %0) #8 comdat {
  %2 = alloca float, align 4
  store float %0, ptr %2, align 4, !tbaa !15
  %3 = load float, ptr %2, align 4, !tbaa !15
  %4 = call float @acosf(float noundef %3) #3, !tbaa !11
  ret float %4
}

; Function Attrs: inlinehint mustprogress nounwind uwtable
define internal noundef float @_ZN2cv6bgsegm12_GLOBAL__N_16det3x3Effffff(float noundef %0, float noundef %1, float noundef %2, float noundef %3, float noundef %4, float noundef %5) #8 {
  %7 = alloca float, align 4
  %8 = alloca float, align 4
  %9 = alloca float, align 4
  %10 = alloca float, align 4
  %11 = alloca float, align 4
  %12 = alloca float, align 4
  store float %0, ptr %7, align 4, !tbaa !15
  store float %1, ptr %8, align 4, !tbaa !15
  store float %2, ptr %9, align 4, !tbaa !15
  store float %3, ptr %10, align 4, !tbaa !15
  store float %4, ptr %11, align 4, !tbaa !15
  store float %5, ptr %12, align 4, !tbaa !15
  %13 = load float, ptr %7, align 4, !tbaa !15
  %14 = load float, ptr %10, align 4, !tbaa !15
  %15 = load float, ptr %12, align 4, !tbaa !15
  %16 = load float, ptr %11, align 4, !tbaa !15
  %17 = load float, ptr %11, align 4, !tbaa !15
  %18 = fmul float %16, %17
  %19 = fneg float %18
  %20 = call float @llvm.fmuladd.f32(float %14, float %15, float %19)
  %21 = load float, ptr %8, align 4, !tbaa !15
  %22 = load float, ptr %9, align 4, !tbaa !15
  %23 = fmul float 2.000000e+00, %22
  %24 = load float, ptr %11, align 4, !tbaa !15
  %25 = load float, ptr %12, align 4, !tbaa !15
  %26 = load float, ptr %8, align 4, !tbaa !15
  %27 = fmul float %25, %26
  %28 = fneg float %27
  %29 = call float @llvm.fmuladd.f32(float %23, float %24, float %28)
  %30 = fmul float %21, %29
  %31 = call float @llvm.fmuladd.f32(float %13, float %20, float %30)
  %32 = load float, ptr %9, align 4, !tbaa !15
  %33 = load float, ptr %9, align 4, !tbaa !15
  %34 = fmul float %32, %33
  %35 = load float, ptr %10, align 4, !tbaa !15
  %36 = fneg float %34
  %37 = call float @llvm.fmuladd.f32(float %36, float %35, float %31)
  ret float %37
}

; Function Attrs: inlinehint mustprogress nounwind uwtable
define linkonce_odr noundef float @_ZSt4sqrtf(float noundef %0) #8 comdat {
  %2 = alloca float, align 4
  store float %0, ptr %2, align 4, !tbaa !15
  %3 = load float, ptr %2, align 4, !tbaa !15
  %4 = call float @sqrtf(float noundef %3) #3, !tbaa !11
  ret float %4
}

; Function Attrs: inlinehint mustprogress uwtable
define internal noundef float @_ZN2cv6bgsegm12_GLOBAL__N_18localSVDEfffffffff(float noundef %0, float noundef %1, float noundef %2, float noundef %3, float noundef %4, float noundef %5, float noundef %6, float noundef %7, float noundef %8) #6 {
  %10 = alloca float, align 4
  %11 = alloca float, align 4
  %12 = alloca float, align 4
  %13 = alloca float, align 4
  %14 = alloca float, align 4
  %15 = alloca float, align 4
  %16 = alloca float, align 4
  %17 = alloca float, align 4
  %18 = alloca float, align 4
  %19 = alloca float, align 4
  %20 = alloca float, align 4
  %21 = alloca float, align 4
  %22 = alloca float, align 4
  %23 = alloca float, align 4
  %24 = alloca float, align 4
  %25 = alloca float, align 4
  %26 = alloca float, align 4
  %27 = alloca float, align 4
  %28 = alloca i32, align 4
  %29 = alloca float, align 4
  %30 = alloca float, align 4
  %31 = alloca float, align 4
  %32 = alloca float, align 4
  %33 = alloca float, align 4
  %34 = alloca float, align 4
  %35 = alloca float, align 4
  %36 = alloca float, align 4
  %37 = alloca float, align 4
  %38 = alloca float, align 4
  store float %0, ptr %11, align 4, !tbaa !15
  store float %1, ptr %12, align 4, !tbaa !15
  store float %2, ptr %13, align 4, !tbaa !15
  store float %3, ptr %14, align 4, !tbaa !15
  store float %4, ptr %15, align 4, !tbaa !15
  store float %5, ptr %16, align 4, !tbaa !15
  store float %6, ptr %17, align 4, !tbaa !15
  store float %7, ptr %18, align 4, !tbaa !15
  store float %8, ptr %19, align 4, !tbaa !15
  call void @llvm.lifetime.start.p0(i64 4, ptr %20) #3
  %39 = load float, ptr %11, align 4, !tbaa !15
  %40 = load float, ptr %11, align 4, !tbaa !15
  %41 = load float, ptr %12, align 4, !tbaa !15
  %42 = load float, ptr %12, align 4, !tbaa !15
  %43 = fmul float %41, %42
  %44 = call float @llvm.fmuladd.f32(float %39, float %40, float %43)
  %45 = load float, ptr %13, align 4, !tbaa !15
  %46 = load float, ptr %13, align 4, !tbaa !15
  %47 = call float @llvm.fmuladd.f32(float %45, float %46, float %44)
  store float %47, ptr %20, align 4, !tbaa !15
  call void @llvm.lifetime.start.p0(i64 4, ptr %21) #3
  %48 = load float, ptr %11, align 4, !tbaa !15
  %49 = load float, ptr %14, align 4, !tbaa !15
  %50 = load float, ptr %12, align 4, !tbaa !15
  %51 = load float, ptr %15, align 4, !tbaa !15
  %52 = fmul float %50, %51
  %53 = call float @llvm.fmuladd.f32(float %48, float %49, float %52)
  %54 = load float, ptr %13, align 4, !tbaa !15
  %55 = load float, ptr %16, align 4, !tbaa !15
  %56 = call float @llvm.fmuladd.f32(float %54, float %55, float %53)
  store float %56, ptr %21, align 4, !tbaa !15
  call void @llvm.lifetime.start.p0(i64 4, ptr %22) #3
  %57 = load float, ptr %11, align 4, !tbaa !15
  %58 = load float, ptr %17, align 4, !tbaa !15
  %59 = load float, ptr %12, align 4, !tbaa !15
  %60 = load float, ptr %18, align 4, !tbaa !15
  %61 = fmul float %59, %60
  %62 = call float @llvm.fmuladd.f32(float %57, float %58, float %61)
  %63 = load float, ptr %13, align 4, !tbaa !15
  %64 = load float, ptr %19, align 4, !tbaa !15
  %65 = call float @llvm.fmuladd.f32(float %63, float %64, float %62)
  store float %65, ptr %22, align 4, !tbaa !15
  call void @llvm.lifetime.start.p0(i64 4, ptr %23) #3
  %66 = load float, ptr %14, align 4, !tbaa !15
  %67 = load float, ptr %14, align 4, !tbaa !15
  %68 = load float, ptr %15, align 4, !tbaa !15
  %69 = load float, ptr %15, align 4, !tbaa !15
  %70 = fmul float %68, %69
  %71 = call float @llvm.fmuladd.f32(float %66, float %67, float %70)
  %72 = load float, ptr %16, align 4, !tbaa !15
  %73 = load float, ptr %16, align 4, !tbaa !15
  %74 = call float @llvm.fmuladd.f32(float %72, float %73, float %71)
  store float %74, ptr %23, align 4, !tbaa !15
  call void @llvm.lifetime.start.p0(i64 4, ptr %24) #3
  %75 = load float, ptr %14, align 4, !tbaa !15
  %76 = load float, ptr %17, align 4, !tbaa !15
  %77 = load float, ptr %15, align 4, !tbaa !15
  %78 = load float, ptr %18, align 4, !tbaa !15
  %79 = fmul float %77, %78
  %80 = call float @llvm.fmuladd.f32(float %75, float %76, float %79)
  %81 = load float, ptr %16, align 4, !tbaa !15
  %82 = load float, ptr %19, align 4, !tbaa !15
  %83 = call float @llvm.fmuladd.f32(float %81, float %82, float %80)
  store float %83, ptr %24, align 4, !tbaa !15
  call void @llvm.lifetime.start.p0(i64 4, ptr %25) #3
  %84 = load float, ptr %17, align 4, !tbaa !15
  %85 = load float, ptr %17, align 4, !tbaa !15
  %86 = load float, ptr %18, align 4, !tbaa !15
  %87 = load float, ptr %18, align 4, !tbaa !15
  %88 = fmul float %86, %87
  %89 = call float @llvm.fmuladd.f32(float %84, float %85, float %88)
  %90 = load float, ptr %19, align 4, !tbaa !15
  %91 = load float, ptr %19, align 4, !tbaa !15
  %92 = call float @llvm.fmuladd.f32(float %90, float %91, float %89)
  store float %92, ptr %25, align 4, !tbaa !15
  call void @llvm.lifetime.start.p0(i64 4, ptr %26) #3
  %93 = load float, ptr %20, align 4, !tbaa !15
  %94 = load float, ptr %23, align 4, !tbaa !15
  %95 = fadd float %93, %94
  %96 = load float, ptr %25, align 4, !tbaa !15
  %97 = fadd float %95, %96
  %98 = fdiv float %97, 3.000000e+00
  store float %98, ptr %26, align 4, !tbaa !15
  %99 = load float, ptr %26, align 4, !tbaa !15
  %100 = load float, ptr %20, align 4, !tbaa !15
  %101 = fsub float %100, %99
  store float %101, ptr %20, align 4, !tbaa !15
  %102 = load float, ptr %26, align 4, !tbaa !15
  %103 = load float, ptr %23, align 4, !tbaa !15
  %104 = fsub float %103, %102
  store float %104, ptr %23, align 4, !tbaa !15
  %105 = load float, ptr %26, align 4, !tbaa !15
  %106 = load float, ptr %25, align 4, !tbaa !15
  %107 = fsub float %106, %105
  store float %107, ptr %25, align 4, !tbaa !15
  call void @llvm.lifetime.start.p0(i64 4, ptr %27) #3
  %108 = load float, ptr %20, align 4, !tbaa !15
  %109 = load float, ptr %20, align 4, !tbaa !15
  %110 = load float, ptr %23, align 4, !tbaa !15
  %111 = load float, ptr %23, align 4, !tbaa !15
  %112 = fmul float %110, %111
  %113 = call float @llvm.fmuladd.f32(float %108, float %109, float %112)
  %114 = load float, ptr %25, align 4, !tbaa !15
  %115 = load float, ptr %25, align 4, !tbaa !15
  %116 = call float @llvm.fmuladd.f32(float %114, float %115, float %113)
  %117 = load float, ptr %21, align 4, !tbaa !15
  %118 = load float, ptr %21, align 4, !tbaa !15
  %119 = load float, ptr %22, align 4, !tbaa !15
  %120 = load float, ptr %22, align 4, !tbaa !15
  %121 = fmul float %119, %120
  %122 = call float @llvm.fmuladd.f32(float %117, float %118, float %121)
  %123 = load float, ptr %24, align 4, !tbaa !15
  %124 = load float, ptr %24, align 4, !tbaa !15
  %125 = call float @llvm.fmuladd.f32(float %123, float %124, float %122)
  %126 = call float @llvm.fmuladd.f32(float 2.000000e+00, float %125, float %116)
  %127 = fdiv float %126, 6.000000e+00
  %128 = call noundef float @_ZSt4sqrtf(float noundef %127)
  store float %128, ptr %27, align 4, !tbaa !15
  %129 = load float, ptr %27, align 4, !tbaa !15
  %130 = fcmp oeq float %129, 0.000000e+00
  br i1 %130, label %131, label %132

131:                                              ; preds = %9
  store float 0.000000e+00, ptr %10, align 4
  store i32 1, ptr %28, align 4
  br label %207

132:                                              ; preds = %9
  call void @llvm.lifetime.start.p0(i64 4, ptr %29) #3
  %133 = load float, ptr %27, align 4, !tbaa !15
  %134 = fdiv float 1.000000e+00, %133
  store float %134, ptr %29, align 4, !tbaa !15
  call void @llvm.lifetime.start.p0(i64 4, ptr %30) #3
  %135 = load float, ptr %29, align 4, !tbaa !15
  %136 = load float, ptr %20, align 4, !tbaa !15
  %137 = fmul float %135, %136
  %138 = load float, ptr %29, align 4, !tbaa !15
  %139 = load float, ptr %21, align 4, !tbaa !15
  %140 = fmul float %138, %139
  %141 = load float, ptr %29, align 4, !tbaa !15
  %142 = load float, ptr %22, align 4, !tbaa !15
  %143 = fmul float %141, %142
  %144 = load float, ptr %29, align 4, !tbaa !15
  %145 = load float, ptr %23, align 4, !tbaa !15
  %146 = fmul float %144, %145
  %147 = load float, ptr %29, align 4, !tbaa !15
  %148 = load float, ptr %24, align 4, !tbaa !15
  %149 = fmul float %147, %148
  %150 = load float, ptr %29, align 4, !tbaa !15
  %151 = load float, ptr %25, align 4, !tbaa !15
  %152 = fmul float %150, %151
  %153 = call noundef float @_ZN2cv6bgsegm12_GLOBAL__N_16det3x3Effffff(float noundef %137, float noundef %140, float noundef %143, float noundef %146, float noundef %149, float noundef %152)
  %154 = fdiv float %153, 2.000000e+00
  store float %154, ptr %30, align 4, !tbaa !15
  call void @llvm.lifetime.start.p0(i64 4, ptr %31) #3
  %155 = load float, ptr %30, align 4, !tbaa !15
  %156 = fcmp ole float %155, -1.000000e+00
  br i1 %156, label %157, label %158

157:                                              ; preds = %132
  store float 0x3FF0C15240000000, ptr %31, align 4, !tbaa !15
  br label %167

158:                                              ; preds = %132
  %159 = load float, ptr %30, align 4, !tbaa !15
  %160 = fcmp oge float %159, 1.000000e+00
  br i1 %160, label %161, label %162

161:                                              ; preds = %158
  store float 0.000000e+00, ptr %31, align 4, !tbaa !15
  br label %166

162:                                              ; preds = %158
  %163 = load float, ptr %30, align 4, !tbaa !15
  %164 = call noundef float @_ZSt4acosf(float noundef %163)
  %165 = fdiv float %164, 3.000000e+00
  store float %165, ptr %31, align 4, !tbaa !15
  br label %166

166:                                              ; preds = %162, %161
  br label %167

167:                                              ; preds = %166, %157
  %168 = load float, ptr %27, align 4, !tbaa !15
  %169 = fmul float %168, 2.000000e+00
  store float %169, ptr %27, align 4, !tbaa !15
  call void @llvm.lifetime.start.p0(i64 4, ptr %32) #3
  %170 = load float, ptr %26, align 4, !tbaa !15
  %171 = load float, ptr %27, align 4, !tbaa !15
  %172 = load float, ptr %31, align 4, !tbaa !15
  %173 = call noundef float @_ZSt3cosf(float noundef %172)
  %174 = call float @llvm.fmuladd.f32(float %171, float %173, float %170)
  store float %174, ptr %32, align 4, !tbaa !15
  call void @llvm.lifetime.start.p0(i64 4, ptr %33) #3
  call void @llvm.lifetime.start.p0(i64 4, ptr %34) #3
  %175 = load float, ptr %32, align 4, !tbaa !15
  %176 = load float, ptr %26, align 4, !tbaa !15
  %177 = fmul float 3.000000e+00, %176
  %178 = fcmp olt float %175, %177
  br i1 %178, label %179, label %196

179:                                              ; preds = %167
  call void @llvm.lifetime.start.p0(i64 4, ptr %35) #3
  %180 = load float, ptr %26, align 4, !tbaa !15
  %181 = load float, ptr %27, align 4, !tbaa !15
  %182 = load float, ptr %31, align 4, !tbaa !15
  %183 = fadd float %182, 0x4000C15240000000
  %184 = call noundef float @_ZSt3cosf(float noundef %183)
  %185 = call float @llvm.fmuladd.f32(float %181, float %184, float %180)
  store float %185, ptr %35, align 4, !tbaa !15
  call void @llvm.lifetime.start.p0(i64 4, ptr %36) #3
  store float 0.000000e+00, ptr %36, align 4, !tbaa !15
  %186 = call noundef nonnull align 4 dereferenceable(4) ptr @_ZSt3maxIfERKT_S2_S2_(ptr noundef nonnull align 4 dereferenceable(4) %35, ptr noundef nonnull align 4 dereferenceable(4) %36)
  %187 = load float, ptr %186, align 4, !tbaa !15
  store float %187, ptr %34, align 4, !tbaa !15
  call void @llvm.lifetime.end.p0(i64 4, ptr %36) #3
  call void @llvm.lifetime.end.p0(i64 4, ptr %35) #3
  call void @llvm.lifetime.start.p0(i64 4, ptr %37) #3
  %188 = load float, ptr %26, align 4, !tbaa !15
  %189 = load float, ptr %32, align 4, !tbaa !15
  %190 = fneg float %189
  %191 = call float @llvm.fmuladd.f32(float 3.000000e+00, float %188, float %190)
  %192 = load float, ptr %34, align 4, !tbaa !15
  %193 = fsub float %191, %192
  store float %193, ptr %37, align 4, !tbaa !15
  call void @llvm.lifetime.start.p0(i64 4, ptr %38) #3
  store float 0.000000e+00, ptr %38, align 4, !tbaa !15
  %194 = call noundef nonnull align 4 dereferenceable(4) ptr @_ZSt3maxIfERKT_S2_S2_(ptr noundef nonnull align 4 dereferenceable(4) %37, ptr noundef nonnull align 4 dereferenceable(4) %38)
  %195 = load float, ptr %194, align 4, !tbaa !15
  store float %195, ptr %33, align 4, !tbaa !15
  call void @llvm.lifetime.end.p0(i64 4, ptr %38) #3
  call void @llvm.lifetime.end.p0(i64 4, ptr %37) #3
  br label %197

196:                                              ; preds = %167
  store float 0.000000e+00, ptr %33, align 4, !tbaa !15
  store float 0.000000e+00, ptr %34, align 4, !tbaa !15
  br label %197

197:                                              ; preds = %196, %179
  %198 = load float, ptr %33, align 4, !tbaa !15
  %199 = load float, ptr %32, align 4, !tbaa !15
  %200 = fdiv float %198, %199
  %201 = call noundef float @_ZSt4sqrtf(float noundef %200)
  %202 = load float, ptr %34, align 4, !tbaa !15
  %203 = load float, ptr %32, align 4, !tbaa !15
  %204 = fdiv float %202, %203
  %205 = call noundef float @_ZSt4sqrtf(float noundef %204)
  %206 = fadd float %201, %205
  store float %206, ptr %10, align 4
  store i32 1, ptr %28, align 4
  call void @llvm.lifetime.end.p0(i64 4, ptr %34) #3
  call void @llvm.lifetime.end.p0(i64 4, ptr %33) #3
  call void @llvm.lifetime.end.p0(i64 4, ptr %32) #3
  call void @llvm.lifetime.end.p0(i64 4, ptr %31) #3
  call void @llvm.lifetime.end.p0(i64 4, ptr %30) #3
  call void @llvm.lifetime.end.p0(i64 4, ptr %29) #3
  br label %207

207:                                              ; preds = %197, %131
  call void @llvm.lifetime.end.p0(i64 4, ptr %27) #3
  call void @llvm.lifetime.end.p0(i64 4, ptr %26) #3
  call void @llvm.lifetime.end.p0(i64 4, ptr %25) #3
  call void @llvm.lifetime.end.p0(i64 4, ptr %24) #3
  call void @llvm.lifetime.end.p0(i64 4, ptr %23) #3
  call void @llvm.lifetime.end.p0(i64 4, ptr %22) #3
  call void @llvm.lifetime.end.p0(i64 4, ptr %21) #3
  call void @llvm.lifetime.end.p0(i64 4, ptr %20) #3
  %208 = load float, ptr %10, align 4
  ret float %208
}