; Function Attrs: inlinehint mustprogress nofree nounwind willreturn memory(write) uwtable
define internal fastcc noundef float @_ZN2cv6bgsegm12_GLOBAL__N_18localSVDEfffffffff(float noundef %0, float noundef %1, float noundef %2, float noundef %3, float noundef %4, float noundef %5, float noundef %6, float noundef %7, float noundef %8) unnamed_addr #6 {
  %10 = fmul float %1, %1
  %11 = tail call float @llvm.fmuladd.f32(float %0, float %0, float %10)
  %12 = tail call float @llvm.fmuladd.f32(float %2, float %2, float %11)
  %13 = fmul float %1, %4
  %14 = tail call float @llvm.fmuladd.f32(float %0, float %3, float %13)
  %15 = tail call float @llvm.fmuladd.f32(float %2, float %5, float %14)
  %16 = fmul float %1, %7
  %17 = tail call float @llvm.fmuladd.f32(float %0, float %6, float %16)
  %18 = tail call float @llvm.fmuladd.f32(float %2, float %8, float %17)
  %19 = fmul float %4, %4
  %20 = tail call float @llvm.fmuladd.f32(float %3, float %3, float %19)
  %21 = tail call float @llvm.fmuladd.f32(float %5, float %5, float %20)
  %22 = fmul float %4, %7
  %23 = tail call float @llvm.fmuladd.f32(float %3, float %6, float %22)
  %24 = tail call float @llvm.fmuladd.f32(float %5, float %8, float %23)
  %25 = fmul float %7, %7
  %26 = tail call float @llvm.fmuladd.f32(float %6, float %6, float %25)
  %27 = tail call float @llvm.fmuladd.f32(float %8, float %8, float %26)
  %28 = fadd float %12, %21
  %29 = fadd float %28, %27
  %30 = fdiv float %29, 3.000000e+00
  %31 = fsub float %12, %30
  %32 = fsub float %21, %30
  %33 = fsub float %27, %30
  %34 = fmul float %32, %32
  %35 = tail call float @llvm.fmuladd.f32(float %31, float %31, float %34)
  %36 = tail call float @llvm.fmuladd.f32(float %33, float %33, float %35)
  %37 = fmul float %18, %18
  %38 = tail call float @llvm.fmuladd.f32(float %15, float %15, float %37)
  %39 = tail call float @llvm.fmuladd.f32(float %24, float %24, float %38)
  %40 = tail call float @llvm.fmuladd.f32(float %39, float 2.000000e+00, float %36)
  %41 = fdiv float %40, 6.000000e+00
  %42 = tail call noundef float @sqrtf(float noundef %41) #29, !tbaa !9
  %43 = fcmp oeq float %42, 0.000000e+00
  br i1 %43, label %92, label %44

44:                                               ; preds = %9
  %45 = fdiv float 1.000000e+00, %42
  %46 = fmul float %31, %45
  %47 = fmul float %15, %45
  %48 = fmul float %18, %45
  %49 = fmul float %32, %45
  %50 = fmul float %24, %45
  %51 = fmul float %33, %45
  %52 = fneg float %50
  %53 = fmul float %50, %52
  %54 = tail call float @llvm.fmuladd.f32(float %49, float %51, float %53)
  %55 = fmul float %48, 2.000000e+00
  %56 = fneg float %47
  %57 = fmul float %51, %56
  %58 = tail call float @llvm.fmuladd.f32(float %55, float %50, float %57)
  %59 = fmul float %47, %58
  %60 = tail call float @llvm.fmuladd.f32(float %46, float %54, float %59)
  %61 = fneg float %48
  %62 = fmul float %48, %61
  %63 = tail call noundef float @llvm.fmuladd.f32(float %62, float %49, float %60)
  %64 = fmul float %63, 5.000000e-01
  %65 = fcmp ugt float %64, -1.000000e+00
  br i1 %65, label %66, label %71

66:                                               ; preds = %44
  %67 = fcmp ult float %64, 1.000000e+00
  br i1 %67, label %68, label %71

68:                                               ; preds = %66
  %69 = tail call noundef float @acosf(float noundef %64) #29, !tbaa !9
  %70 = fdiv float %69, 3.000000e+00
  br label %71

71:                                               ; preds = %66, %44, %68
  %.093 = phi float [ %70, %68 ], [ 0x3FF0C15240000000, %44 ], [ 0.000000e+00, %66 ]
  %72 = fmul float %42, 2.000000e+00
  %73 = tail call noundef float @cosf(float noundef %.093) #29, !tbaa !9
  %74 = tail call float @llvm.fmuladd.f32(float %72, float %73, float %30)
  %75 = fmul float %30, 3.000000e+00
  %76 = fcmp olt float %74, %75
  br i1 %76, label %77, label %86

77:                                               ; preds = %71
  %78 = fadd float %.093, 0x4000C15240000000
  %79 = tail call noundef float @cosf(float noundef %78) #29, !tbaa !9
  %80 = tail call float @llvm.fmuladd.f32(float %72, float %79, float %30)
  %81 = fcmp olt float %80, 0.000000e+00
  %.sroa.speculated99 = select i1 %81, float 0.000000e+00, float %80
  %82 = fneg float %74
  %83 = tail call float @llvm.fmuladd.f32(float %30, float 3.000000e+00, float %82)
  %84 = fsub float %83, %.sroa.speculated99
  %85 = fcmp olt float %84, 0.000000e+00
  %.sroa.speculated = select i1 %85, float 0.000000e+00, float %84
  br label %86

86:                                               ; preds = %71, %77
  %.091 = phi float [ %.sroa.speculated, %77 ], [ 0.000000e+00, %71 ]
  %.0 = phi float [ %.sroa.speculated99, %77 ], [ 0.000000e+00, %71 ]
  %87 = fdiv float %.091, %74
  %88 = tail call noundef float @sqrtf(float noundef %87) #29, !tbaa !9
  %89 = fdiv float %.0, %74
  %90 = tail call noundef float @sqrtf(float noundef %89) #29, !tbaa !9
  %91 = fadd float %88, %90
  br label %92

92:                                               ; preds = %9, %86
  %.092 = phi float [ %91, %86 ], [ 0.000000e+00, %9 ]
  ret float %.092
}